target datalayout = "e-m:e-p270:32:32-p271:32:32-p272:64:64-i64:64-i128:128-f80:128-n8:16:32:64-S128"
target triple = "x86_64-pc-linux-gnu"

%struct.evthread_lock_callbacks = type { i32, i32, ptr, ptr, ptr, ptr }
%struct.bufferevent_private = type { %struct.bufferevent, ptr, i8, i16, i16, i16, i32, i32, %struct.event_callback, i32, i32, ptr, i64, i64, ptr, %union.anon.7, ptr }
%struct.bufferevent = type { ptr, ptr, %struct.event, %struct.event, ptr, ptr, %struct.event_watermark, %struct.event_watermark, ptr, ptr, ptr, ptr, %struct.timeval, %struct.timeval, i16 }
%struct.event = type { %struct.event_callback, %union.anon.0, i32, i16, i16, ptr, %union.anon.2, %struct.timeval }
%union.anon.0 = type { %struct.anon.1 }
%struct.anon.1 = type { ptr, ptr }
%union.anon.2 = type { %struct.anon.3 }
%struct.anon.3 = type { %struct.anon.4, %struct.timeval }
%struct.anon.4 = type { ptr, ptr }
%struct.event_watermark = type { i64, i64 }
%struct.timeval = type { i64, i64 }
%struct.event_callback = type { %struct.anon, i16, i8, i8, %union.anon, ptr }
%struct.anon = type { ptr, ptr }
%union.anon = type { ptr }
%union.anon.7 = type { %struct.sockaddr_in6 }
%struct.sockaddr_in6 = type { i16, i16, i32, %struct.in6_addr, i32 }
%struct.in6_addr = type { %union.anon.8 }
%union.anon.8 = type { [4 x i32] }
%struct.bufferevent_ops = type { ptr, i64, ptr, ptr, ptr, ptr, ptr, ptr, ptr }

@evthread_lock_fns_ = external global %struct.evthread_lock_callbacks, align 8

; Function Attrs: nounwind uwtable
define i32 @bufferevent_set_timeouts(ptr noundef %0, ptr noundef %1, ptr noundef %2) #0 {
  %4 = alloca ptr, align 8
  %5 = alloca ptr, align 8
  %6 = alloca ptr, align 8
  %7 = alloca i32, align 4
  %8 = alloca ptr, align 8
  %9 = alloca ptr, align 8
  store ptr %0, ptr %4, align 8
  store ptr %1, ptr %5, align 8
  store ptr %2, ptr %6, align 8
  call void @llvm.lifetime.start.p0(i64 4, ptr %7) #7
  store i32 0, ptr %7, align 4
  br label %10

10:                                               ; preds = %3
  call void @llvm.lifetime.start.p0(i64 8, ptr %8) #7
  %11 = load ptr, ptr %4, align 8
  %12 = getelementptr inbounds i8, ptr %11, i64 0
  store ptr %12, ptr %8, align 8
  br label %13

13:                                               ; preds = %10
  %14 = load ptr, ptr %8, align 8
  %15 = getelementptr inbounds nuw %struct.bufferevent_private, ptr %14, i32 0, i32 11
  %16 = load ptr, ptr %15, align 8
  %17 = icmp ne ptr %16, null
  br i1 %17, label %18, label %24

18:                                               ; preds = %13
  %19 = load ptr, ptr getelementptr inbounds nuw (%struct.evthread_lock_callbacks, ptr @evthread_lock_fns_, i32 0, i32 4), align 8
  %20 = load ptr, ptr %8, align 8
  %21 = getelementptr inbounds nuw %struct.bufferevent_private, ptr %20, i32 0, i32 11
  %22 = load ptr, ptr %21, align 8
  %23 = call i32 %19(i32 noundef 0, ptr noundef %22)
  br label %24

24:                                               ; preds = %18, %13
  br label %25

25:                                               ; preds = %24
  br label %26

26:                                               ; preds = %25
  call void @llvm.lifetime.end.p0(i64 8, ptr %8) #7
  br label %27

27:                                               ; preds = %26
  br label %28

28:                                               ; preds = %27
  %29 = load ptr, ptr %5, align 8
  %30 = icmp ne ptr %29, null
  br i1 %30, label %31, label %35

31:                                               ; preds = %28
  %32 = load ptr, ptr %4, align 8
  %33 = getelementptr inbounds nuw %struct.bufferevent, ptr %32, i32 0, i32 12
  %34 = load ptr, ptr %5, align 8
  call void @llvm.memcpy.p0.p0.i64(ptr align 8 %33, ptr align 8 %34, i64 16, i1 false)
  br label %42

35:                                               ; preds = %28
  %36 = load ptr, ptr %4, align 8
  %37 = getelementptr inbounds nuw %struct.bufferevent, ptr %36, i32 0, i32 12
  %38 = getelementptr inbounds nuw %struct.timeval, ptr %37, i32 0, i32 1
  store i64 0, ptr %38, align 8
  %39 = load ptr, ptr %4, align 8
  %40 = getelementptr inbounds nuw %struct.bufferevent, ptr %39, i32 0, i32 12
  %41 = getelementptr inbounds nuw %struct.timeval, ptr %40, i32 0, i32 0
  store i64 0, ptr %41, align 8
  br label %42

42:                                               ; preds = %35, %31
  %43 = load ptr, ptr %6, align 8
  %44 = icmp ne ptr %43, null
  br i1 %44, label %45, label %49

45:                                               ; preds = %42
  %46 = load ptr, ptr %4, align 8
  %47 = getelementptr inbounds nuw %struct.bufferevent, ptr %46, i32 0, i32 13
  %48 = load ptr, ptr %6, align 8
  call void @llvm.memcpy.p0.p0.i64(ptr align 8 %47, ptr align 8 %48, i64 16, i1 false)
  br label %56

49:                                               ; preds = %42
  %50 = load ptr, ptr %4, align 8
  %51 = getelementptr inbounds nuw %struct.bufferevent, ptr %50, i32 0, i32 13
  %52 = getelementptr inbounds nuw %struct.timeval, ptr %51, i32 0, i32 1
  store i64 0, ptr %52, align 8
  %53 = load ptr, ptr %4, align 8
  %54 = getelementptr inbounds nuw %struct.bufferevent, ptr %53, i32 0, i32 13
  %55 = getelementptr inbounds nuw %struct.timeval, ptr %54, i32 0, i32 0
  store i64 0, ptr %55, align 8
  br label %56

56:                                               ; preds = %49, %45
  %57 = load ptr, ptr %4, align 8
  %58 = getelementptr inbounds nuw %struct.bufferevent, ptr %57, i32 0, i32 1
  %59 = load ptr, ptr %58, align 8
  %60 = getelementptr inbounds nuw %struct.bufferevent_ops, ptr %59, i32 0, i32 6
  %61 = load ptr, ptr %60, align 8
  %62 = icmp ne ptr %61, null
  br i1 %62, label %63, label %71

63:                                               ; preds = %56
  %64 = load ptr, ptr %4, align 8
  %65 = getelementptr inbounds nuw %struct.bufferevent, ptr %64, i32 0, i32 1
  %66 = load ptr, ptr %65, align 8
  %67 = getelementptr inbounds nuw %struct.bufferevent_ops, ptr %66, i32 0, i32 6
  %68 = load ptr, ptr %67, align 8
  %69 = load ptr, ptr %4, align 8
  %70 = call i32 %68(ptr noundef %69)
  store i32 %70, ptr %7, align 4
  br label %71

71:                                               ; preds = %63, %56
  br label %72

72:                                               ; preds = %71
  call void @llvm.lifetime.start.p0(i64 8, ptr %9) #7
  %73 = load ptr, ptr %4, align 8
  %74 = getelementptr inbounds i8, ptr %73, i64 0
  store ptr %74, ptr %9, align 8
  br label %75

75:                                               ; preds = %72
  %76 = load ptr, ptr %9, align 8
  %77 = getelementptr inbounds nuw %struct.bufferevent_private, ptr %76, i32 0, i32 11
  %78 = load ptr, ptr %77, align 8
  %79 = icmp ne ptr %78, null
  br i1 %79, label %80, label %86

80:                                               ; preds = %75
  %81 = load ptr, ptr getelementptr inbounds nuw (%struct.evthread_lock_callbacks, ptr @evthread_lock_fns_, i32 0, i32 5), align 8
  %82 = load ptr, ptr %9, align 8
  %83 = getelementptr inbounds nuw %struct.bufferevent_private, ptr %82, i32 0, i32 11
  %84 = load ptr, ptr %83, align 8
  %85 = call i32 %81(i32 noundef 0, ptr noundef %84)
  br label %86

86:                                               ; preds = %80, %75
  br label %87

87:                                               ; preds = %86
  br label %88

88:                                               ; preds = %87
  call void @llvm.lifetime.end.p0(i64 8, ptr %9) #7
  br label %89

89:                                               ; preds = %88
  br label %90

90:                                               ; preds = %89
  %91 = load i32, ptr %7, align 4
  call void @llvm.lifetime.end.p0(i64 4, ptr %7) #7
  ret i32 %91
}

; Function Attrs: nounwind uwtable
define void @bufferevent_settimeout(ptr noundef %0, i32 noundef %1, i32 noundef %2) #0 {
  %4 = alloca ptr, align 8
  %5 = alloca i32, align 4
  %6 = alloca i32, align 4
  %7 = alloca %struct.timeval, align 8
  %8 = alloca %struct.timeval, align 8
  %9 = alloca ptr, align 8
  %10 = alloca ptr, align 8
  store ptr %0, ptr %4, align 8
  store i32 %1, ptr %5, align 4
  store i32 %2, ptr %6, align 4
  call void @llvm.lifetime.start.p0(i64 16, ptr %7) #7
  call void @llvm.lifetime.start.p0(i64 16, ptr %8) #7
  call void @llvm.lifetime.start.p0(i64 8, ptr %9) #7
  store ptr null, ptr %9, align 8
  call void @llvm.lifetime.start.p0(i64 8, ptr %10) #7
  store ptr null, ptr %10, align 8
  call void @llvm.memset.p0.i64(ptr align 8 %7, i8 0, i64 16, i1 false)
  call void @llvm.memset.p0.i64(ptr align 8 %8, i8 0, i64 16, i1 false)
  %11 = load i32, ptr %5, align 4
  %12 = icmp ne i32 %11, 0
  br i1 %12, label %13, label %17

13:                                               ; preds = %3
  %14 = load i32, ptr %5, align 4
  %15 = sext i32 %14 to i64
  %16 = getelementptr inbounds nuw %struct.timeval, ptr %7, i32 0, i32 0
  store i64 %15, ptr %16, align 8
  store ptr %7, ptr %9, align 8
  br label %17

17:                                               ; preds = %13, %3
  %18 = load i32, ptr %6, align 4
  %19 = icmp ne i32 %18, 0
  br i1 %19, label %20, label %24

20:                                               ; preds = %17
  %21 = load i32, ptr %6, align 4
  %22 = sext i32 %21 to i64
  %23 = getelementptr inbounds nuw %struct.timeval, ptr %8, i32 0, i32 0
  store i64 %22, ptr %23, align 8
  store ptr %8, ptr %10, align 8
  br label %24

24:                                               ; preds = %20, %17
  %25 = load ptr, ptr %4, align 8
  %26 = load ptr, ptr %9, align 8
  %27 = load ptr, ptr %10, align 8
  %28 = call i32 @bufferevent_set_timeouts(ptr noundef %25, ptr noundef %26, ptr noundef %27)
  call void @llvm.lifetime.end.p0(i64 8, ptr %10) #7
  call void @llvm.lifetime.end.p0(i64 8, ptr %9) #7
  call void @llvm.lifetime.end.p0(i64 16, ptr %8) #7
  call void @llvm.lifetime.end.p0(i64 16, ptr %7) #7
  ret void
}