; Function Attrs: nounwind uwtable
define void @bufferevent_settimeout(ptr noundef initializes((336, 368)) %0, i32 noundef %1, i32 noundef %2) local_unnamed_addr #0 {
  %4 = alloca %struct.timeval, align 8
  %5 = alloca %struct.timeval, align 8
  call void @llvm.lifetime.start.p0(i64 16, ptr nonnull %4) #7
  call void @llvm.lifetime.start.p0(i64 16, ptr nonnull %5) #7
  call void @llvm.memset.p0.i64(ptr noundef nonnull align 8 dereferenceable(16) %4, i8 0, i64 16, i1 false)
  call void @llvm.memset.p0.i64(ptr noundef nonnull align 8 dereferenceable(16) %5, i8 0, i64 16, i1 false)
  %.not = icmp eq i32 %1, 0
  br i1 %.not, label %8, label %6

6:                                                ; preds = %3
  %7 = sext i32 %1 to i64
  store i64 %7, ptr %4, align 8
  br label %8

8:                                                ; preds = %6, %3
  %.06 = phi ptr [ %4, %6 ], [ null, %3 ]
  %.not9 = icmp eq i32 %2, 0
  br i1 %.not9, label %11, label %9

9:                                                ; preds = %8
  %10 = sext i32 %2 to i64
  store i64 %10, ptr %5, align 8
  br label %11

11:                                               ; preds = %9, %8
  %.0 = phi ptr [ %5, %9 ], [ null, %8 ]
  %12 = getelementptr inbounds nuw i8, ptr %0, i64 448
  %13 = load ptr, ptr %12, align 8
  %.not.i = icmp eq ptr %13, null
  br i1 %.not.i, label %17, label %14

14:                                               ; preds = %11
  %15 = load ptr, ptr getelementptr inbounds nuw (i8, ptr @evthread_lock_fns_, i64 24), align 8
  %16 = tail call i32 %15(i32 noundef 0, ptr noundef nonnull %13) #7
  br label %17

17:                                               ; preds = %14, %11
  %.not24.i = icmp eq ptr %.06, null
  %18 = getelementptr inbounds nuw i8, ptr %0, i64 336
  br i1 %.not24.i, label %20, label %19

19:                                               ; preds = %17
  call void @llvm.memcpy.p0.p0.i64(ptr noundef nonnull align 8 dereferenceable(16) %18, ptr noundef nonnull readonly align 8 dereferenceable(16) %.06, i64 16, i1 false)
  br label %21

20:                                               ; preds = %17
  call void @llvm.memset.p0.i64(ptr noundef nonnull align 8 dereferenceable(16) %18, i8 0, i64 16, i1 false)
  br label %21

21:                                               ; preds = %20, %19
  %.not25.i = icmp eq ptr %.0, null
  %22 = getelementptr inbounds nuw i8, ptr %0, i64 352
  br i1 %.not25.i, label %24, label %23

23:                                               ; preds = %21
  call void @llvm.memcpy.p0.p0.i64(ptr noundef nonnull align 8 dereferenceable(16) %22, ptr noundef nonnull readonly align 8 dereferenceable(16) %.0, i64 16, i1 false)
  br label %25

24:                                               ; preds = %21
  call void @llvm.memset.p0.i64(ptr noundef nonnull align 8 dereferenceable(16) %22, i8 0, i64 16, i1 false)
  br label %25

25:                                               ; preds = %24, %23
  %26 = getelementptr inbounds nuw i8, ptr %0, i64 8
  %27 = load ptr, ptr %26, align 8
  %28 = getelementptr inbounds nuw i8, ptr %27, i64 48
  %29 = load ptr, ptr %28, align 8
  %.not26.i = icmp eq ptr %29, null
  br i1 %.not26.i, label %32, label %30

30:                                               ; preds = %25
  %31 = call i32 %29(ptr noundef nonnull %0) #7
  br label %32

32:                                               ; preds = %30, %25
  %33 = load ptr, ptr %12, align 8
  %.not27.i = icmp eq ptr %33, null
  br i1 %.not27.i, label %bufferevent_set_timeouts.exit, label %34

34:                                               ; preds = %32
  %35 = load ptr, ptr getelementptr inbounds nuw (i8, ptr @evthread_lock_fns_, i64 32), align 8
  %36 = call i32 %35(i32 noundef 0, ptr noundef nonnull %33) #7
  br label %bufferevent_set_timeouts.exit

bufferevent_set_timeouts.exit:                    ; preds = %32, %34
  call void @llvm.lifetime.end.p0(i64 16, ptr nonnull %5) #7
  call void @llvm.lifetime.end.p0(i64 16, ptr nonnull %4) #7
  ret void
}